target datalayout = "e-m:e-p270:32:32-p271:32:32-p272:64:64-i64:64-i128:128-f80:128-n8:16:32:64-S128"
target triple = "x86_64-pc-linux-gnu"

@.str.1 = private unnamed_addr constant [31 x i8] c"../openssl/crypto/ts/ts_conf.c\00", align 1
@.str.5 = private unnamed_addr constant [14 x i8] c"crypto_device\00", align 1
@.str.26 = private unnamed_addr constant [7 x i8] c"%s::%s\00", align 1
@__func__.ts_CONF_invalid = private unnamed_addr constant [16 x i8] c"ts_CONF_invalid\00", align 1

; Function Attrs: nounwind uwtable
define internal void @ts_CONF_invalid(ptr noundef %0, ptr noundef %1) #0 {
  %3 = alloca ptr, align 8
  %4 = alloca ptr, align 8
  store ptr %0, ptr %3, align 8, !tbaa !3
  store ptr %1, ptr %4, align 8, !tbaa !3
  call void @ERR_new()
  call void @ERR_set_debug(ptr noundef @.str.1, i32 noundef 132, ptr noundef @__func__.ts_CONF_invalid)
  %5 = load ptr, ptr %3, align 8, !tbaa !3
  %6 = load ptr, ptr %4, align 8, !tbaa !3
  call void (i32, i32, ptr, ...) @ERR_set_error(i32 noundef 47, i32 noundef 135, ptr noundef @.str.26, ptr noundef %5, ptr noundef %6)
  ret void
}

; Function Attrs: nounwind uwtable
define i32 @TS_CONF_set_crypto_device(ptr noundef %0, ptr noundef %1, ptr noundef %2) #0 {
  %4 = alloca ptr, align 8
  %5 = alloca ptr, align 8
  %6 = alloca ptr, align 8
  %7 = alloca i32, align 4
  store ptr %0, ptr %4, align 8, !tbaa !31
  store ptr %1, ptr %5, align 8, !tbaa !3
  store ptr %2, ptr %6, align 8, !tbaa !3
  call void @llvm.lifetime.start.p0(i64 4, ptr %7) #7
  store i32 0, ptr %7, align 4, !tbaa !16
  %8 = load ptr, ptr %6, align 8, !tbaa !3
  %9 = icmp eq ptr %8, null
  br i1 %9, label %10, label %14

10:                                               ; preds = %3
  %11 = load ptr, ptr %4, align 8, !tbaa !31
  %12 = load ptr, ptr %5, align 8, !tbaa !3
  %13 = call ptr @NCONF_get_string(ptr noundef %11, ptr noundef %12, ptr noundef @.str.5)
  store ptr %13, ptr %6, align 8, !tbaa !3
  br label %14

14:                                               ; preds = %10, %3
  %15 = load ptr, ptr %6, align 8, !tbaa !3
  %16 = icmp ne ptr %15, null
  br i1 %16, label %17, label %23

17:                                               ; preds = %14
  %18 = load ptr, ptr %6, align 8, !tbaa !3
  %19 = call i32 @TS_CONF_set_default_engine(ptr noundef %18)
  %20 = icmp ne i32 %19, 0
  br i1 %20, label %23, label %21

21:                                               ; preds = %17
  %22 = load ptr, ptr %5, align 8, !tbaa !3
  call void @ts_CONF_invalid(ptr noundef %22, ptr noundef @.str.5)
  br label %24

23:                                               ; preds = %17, %14
  store i32 1, ptr %7, align 4, !tbaa !16
  br label %24

24:                                               ; preds = %23, %21
  %25 = load i32, ptr %7, align 4, !tbaa !16
  call void @llvm.lifetime.end.p0(i64 4, ptr %7) #7
  ret i32 %25
}