; Function Attrs: nounwind uwtable
define range(i32 0, 2) i32 @TS_CONF_set_crypto_device(ptr noundef %0, ptr noundef %1, ptr noundef %2) local_unnamed_addr #0 {
  %4 = icmp eq ptr %2, null
  br i1 %4, label %5, label %.thread

5:                                                ; preds = %3
  %6 = tail call ptr @NCONF_get_string(ptr noundef %0, ptr noundef %1, ptr noundef nonnull @.str.5) #4
  %.not = icmp eq ptr %6, null
  br i1 %.not, label %9, label %.thread

.thread:                                          ; preds = %3, %5
  %.0611 = phi ptr [ %6, %5 ], [ %2, %3 ]
  %7 = tail call i32 @TS_CONF_set_default_engine(ptr noundef nonnull %.0611)
  %.not8 = icmp eq i32 %7, 0
  br i1 %.not8, label %8, label %9

8:                                                ; preds = %.thread
  tail call void @ERR_new() #4
  tail call void @ERR_set_debug(ptr noundef nonnull @.str.1, i32 noundef 132, ptr noundef nonnull @__func__.ts_CONF_invalid) #4
  tail call void (i32, i32, ptr, ...) @ERR_set_error(i32 noundef 47, i32 noundef 135, ptr noundef nonnull @.str.26, ptr noundef %1, ptr noundef nonnull @.str.5) #4
  br label %9

9:                                                ; preds = %5, %.thread, %8
  %.0 = phi i32 [ 0, %8 ], [ 1, %.thread ], [ 1, %5 ]
  ret i32 %.0
}